target datalayout = "e-m:e-p270:32:32-p271:32:32-p272:64:64-i64:64-i128:128-f80:128-n8:16:32:64-S128"
target triple = "x86_64-pc-linux-gnu"

%struct.RBasic = type { i64, i64 }
%struct.RRational = type { %struct.RBasic, i64, i64 }

; Function Attrs: inlinehint nounwind sspstrong willreturn memory(none) uwtable
define internal i64 @RB_INT2FIX(i64 noundef %0) #8 {
  %2 = alloca i64, align 8
  %3 = alloca i64, align 8
  %4 = alloca i64, align 8
  %5 = alloca i64, align 8
  %6 = alloca i64, align 8
  %7 = alloca i64, align 8
  store i64 %0, ptr %2, align 8, !tbaa !7
  call void @llvm.lifetime.start.p0(i64 8, ptr %3) #21
  %8 = load i64, ptr %2, align 8, !tbaa !7
  store i64 %8, ptr %3, align 8, !tbaa !7
  call void @llvm.lifetime.start.p0(i64 8, ptr %4) #21
  %9 = load i64, ptr %3, align 8, !tbaa !7
  %10 = shl i64 %9, 1
  %11 = add i64 %10, 1
  store i64 %11, ptr %4, align 8, !tbaa !7
  call void @llvm.lifetime.start.p0(i64 8, ptr %5) #21
  %12 = load i64, ptr %4, align 8, !tbaa !7
  store i64 %12, ptr %5, align 8, !tbaa !7
  call void @llvm.lifetime.start.p0(i64 8, ptr %6) #21
  %13 = load i64, ptr %5, align 8, !tbaa !7
  store i64 %13, ptr %6, align 8, !tbaa !7
  call void @llvm.lifetime.start.p0(i64 8, ptr %7) #21
  %14 = load i64, ptr %6, align 8, !tbaa !7
  store i64 %14, ptr %7, align 8, !tbaa !7
  %15 = load i64, ptr %7, align 8, !tbaa !7
  call void @llvm.lifetime.end.p0(i64 8, ptr %7) #21
  call void @llvm.lifetime.end.p0(i64 8, ptr %6) #21
  call void @llvm.lifetime.end.p0(i64 8, ptr %5) #21
  call void @llvm.lifetime.end.p0(i64 8, ptr %4) #21
  call void @llvm.lifetime.end.p0(i64 8, ptr %3) #21
  ret i64 %15
}

; Function Attrs: inlinehint nounwind sspstrong uwtable
define internal i64 @rb_int2num_inline(i32 noundef %0) #3 {
  %2 = alloca i64, align 8
  %3 = alloca i32, align 4
  store i32 %0, ptr %3, align 4, !tbaa !14
  %4 = load i32, ptr %3, align 4, !tbaa !14
  %5 = sext i32 %4 to i64
  %6 = icmp slt i64 %5, 4611686018427387904
  br i1 %6, label %7, label %15

7:                                                ; preds = %1
  %8 = load i32, ptr %3, align 4, !tbaa !14
  %9 = sext i32 %8 to i64
  %10 = icmp sge i64 %9, -4611686018427387904
  br i1 %10, label %11, label %15

11:                                               ; preds = %7
  %12 = load i32, ptr %3, align 4, !tbaa !14
  %13 = sext i32 %12 to i64
  %14 = call i64 @RB_INT2FIX(i64 noundef %13) #23
  store i64 %14, ptr %2, align 8
  br label %19

15:                                               ; preds = %7, %1
  %16 = load i32, ptr %3, align 4, !tbaa !14
  %17 = sext i32 %16 to i64
  %18 = call i64 @rb_int2big(i64 noundef %17)
  store i64 %18, ptr %2, align 8
  br label %19

19:                                               ; preds = %15, %11
  %20 = load i64, ptr %2, align 8
  ret i64 %20
}

; Function Attrs: nounwind sspstrong uwtable
define internal i64 @nurat_floor(i64 noundef %0) #0 {
  %2 = alloca i64, align 8
  %3 = alloca ptr, align 8
  store i64 %0, ptr %2, align 8, !tbaa !7
  call void @llvm.lifetime.start.p0(i64 8, ptr %3) #21
  %4 = load i64, ptr %2, align 8, !tbaa !7
  %5 = inttoptr i64 %4 to ptr
  store ptr %5, ptr %3, align 8, !tbaa !16
  %6 = load ptr, ptr %3, align 8, !tbaa !16
  %7 = getelementptr inbounds nuw %struct.RRational, ptr %6, i32 0, i32 1
  %8 = load i64, ptr %7, align 8, !tbaa !19
  %9 = load ptr, ptr %3, align 8, !tbaa !16
  %10 = getelementptr inbounds nuw %struct.RRational, ptr %9, i32 0, i32 2
  %11 = load i64, ptr %10, align 8, !tbaa !21
  %12 = call i64 @rb_int_idiv(i64 noundef %8, i64 noundef %11)
  call void @llvm.lifetime.end.p0(i64 8, ptr %3) #21
  ret i64 %12
}

; Function Attrs: nounwind sspstrong uwtable
define hidden i64 @rb_rational_floor(i64 noundef %0, i32 noundef %1) #0 {
  %3 = alloca i64, align 8
  %4 = alloca i64, align 8
  %5 = alloca i32, align 4
  %6 = alloca i64, align 8
  store i64 %0, ptr %4, align 8, !tbaa !7
  store i32 %1, ptr %5, align 4, !tbaa !14
  %7 = load i32, ptr %5, align 4, !tbaa !14
  %8 = icmp eq i32 %7, 0
  br i1 %8, label %9, label %12

9:                                                ; preds = %2
  %10 = load i64, ptr %4, align 8, !tbaa !7
  %11 = call i64 @nurat_floor(i64 noundef %10)
  store i64 %11, ptr %3, align 8
  br label %17

12:                                               ; preds = %2
  call void @llvm.lifetime.start.p0(i64 8, ptr %6) #21
  %13 = load i32, ptr %5, align 4, !tbaa !14
  %14 = call i64 @rb_int2num_inline(i32 noundef %13)
  store i64 %14, ptr %6, align 8, !tbaa !7
  %15 = load i64, ptr %4, align 8, !tbaa !7
  %16 = call i64 @f_round_common(i32 noundef 1, ptr noundef %6, i64 noundef %15, ptr noundef @nurat_floor)
  store i64 %16, ptr %3, align 8
  call void @llvm.lifetime.end.p0(i64 8, ptr %6) #21
  br label %17

17:                                               ; preds = %12, %9
  %18 = load i64, ptr %3, align 8
  ret i64 %18
}