; Function Attrs: nounwind sspstrong uwtable
define hidden i64 @rb_rational_floor(i64 noundef %0, i32 noundef %1) local_unnamed_addr #0 {
  %3 = alloca i64, align 8
  %4 = icmp eq i32 %1, 0
  br i1 %4, label %5, label %12

5:                                                ; preds = %2
  %6 = inttoptr i64 %0 to ptr
  %7 = getelementptr inbounds nuw i8, ptr %6, i64 16
  %8 = load i64, ptr %7, align 8, !tbaa !19
  %9 = getelementptr inbounds nuw i8, ptr %6, i64 24
  %10 = load i64, ptr %9, align 8, !tbaa !21
  %11 = tail call i64 @rb_int_idiv(i64 noundef %8, i64 noundef %10) #17
  br label %17

12:                                               ; preds = %2
  call void @llvm.lifetime.start.p0(i64 8, ptr nonnull %3) #17
  %13 = sext i32 %1 to i64
  %14 = shl nsw i64 %13, 1
  %15 = or disjoint i64 %14, 1
  store i64 %15, ptr %3, align 8, !tbaa !18
  %16 = call fastcc i64 @f_round_common(i32 noundef 1, ptr noundef nonnull %3, i64 noundef %0, ptr noundef nonnull @nurat_floor)
  call void @llvm.lifetime.end.p0(i64 8, ptr nonnull %3) #17
  br label %17

17:                                               ; preds = %12, %5
  %.0 = phi i64 [ %11, %5 ], [ %16, %12 ]
  ret i64 %.0
}